target datalayout = "e-m:e-p270:32:32-p271:32:32-p272:64:64-i64:64-i128:128-f80:128-n8:16:32:64-S128"
target triple = "x86_64-unknown-linux-gnu"

%struct.VFIODevice = type { %struct.anon, %struct.anon.0, %struct.anon.1, ptr, ptr, ptr, ptr, ptr, i32, i32, i8, i8, i8, i8, i32, ptr, i32, i32, i32, ptr, ptr, i32, i8, i8 }
%struct.anon = type { ptr, ptr }
%struct.anon.0 = type { ptr, ptr }
%struct.anon.1 = type { ptr, ptr }

@.str = private unnamed_addr constant [28 x i8] c"../qemu/hw/vfio/migration.c\00", align 1
@__func__.vfio_save_prepare = private unnamed_addr constant [18 x i8] c"vfio_save_prepare\00", align 1
@.str.15 = private unnamed_addr constant [60 x i8] c"%s: VFIO migration is not supported with postcopy migration\00", align 1
@.str.16 = private unnamed_addr constant [61 x i8] c"%s: VFIO migration is not supported with background snapshot\00", align 1

; Function Attrs: nounwind sspstrong uwtable
define internal i32 @vfio_save_prepare(ptr noundef %opaque, ptr noundef %errp) #0 {
entry:
  %retval = alloca i32, align 4
  %opaque.addr = alloca ptr, align 8
  %errp.addr = alloca ptr, align 8
  %vbasedev = alloca ptr, align 8
  store ptr %opaque, ptr %opaque.addr, align 8
  store ptr %errp, ptr %errp.addr, align 8
  %0 = load ptr, ptr %opaque.addr, align 8
  store ptr %0, ptr %vbasedev, align 8
  %call = call zeroext i1 @runstate_check(i32 noundef 10)
  br i1 %call, label %if.then, label %if.end

if.then:                                          ; preds = %entry
  store i32 0, ptr %retval, align 4
  br label %return

if.end:                                           ; preds = %entry
  %call1 = call zeroext i1 @migrate_postcopy_ram()
  br i1 %call1, label %if.then2, label %if.end3

if.then2:                                         ; preds = %if.end
  %1 = load ptr, ptr %errp.addr, align 8
  %2 = load ptr, ptr %vbasedev, align 8
  %name = getelementptr inbounds %struct.VFIODevice, ptr %2, i32 0, i32 6
  %3 = load ptr, ptr %name, align 8
  call void (ptr, ptr, i32, ptr, ptr, ...) @error_setg_internal(ptr noundef %1, ptr noundef @.str, i32 noundef 353, ptr noundef @__func__.vfio_save_prepare, ptr noundef @.str.15, ptr noundef %3)
  store i32 -95, ptr %retval, align 4
  br label %return

if.end3:                                          ; preds = %if.end
  %call4 = call zeroext i1 @migrate_background_snapshot()
  br i1 %call4, label %if.then5, label %if.end7

if.then5:                                         ; preds = %if.end3
  %4 = load ptr, ptr %errp.addr, align 8
  %5 = load ptr, ptr %vbasedev, align 8
  %name6 = getelementptr inbounds %struct.VFIODevice, ptr %5, i32 0, i32 6
  %6 = load ptr, ptr %name6, align 8
  call void (ptr, ptr, i32, ptr, ptr, ...) @error_setg_internal(ptr noundef %4, ptr noundef @.str, i32 noundef 361, ptr noundef @__func__.vfio_save_prepare, ptr noundef @.str.16, ptr noundef %6)
  store i32 -95, ptr %retval, align 4
  br label %return

if.end7:                                          ; preds = %if.end3
  store i32 0, ptr %retval, align 4
  br label %return

return:                                           ; preds = %if.end7, %if.then5, %if.then2, %if.then
  %7 = load i32, ptr %retval, align 4
  ret i32 %7
}