; Function Attrs: nounwind sspstrong uwtable
define internal range(i32 -95, 1) i32 @vfio_save_prepare(ptr noundef readonly captures(none) %opaque, ptr noundef %errp) #2 {
entry:
  %call = tail call zeroext i1 @runstate_check(i32 noundef 10) #16
  br i1 %call, label %return, label %if.end

if.end:                                           ; preds = %entry
  %call1 = tail call zeroext i1 @migrate_postcopy_ram() #16
  br i1 %call1, label %if.then2, label %if.end3

if.then2:                                         ; preds = %if.end
  %name = getelementptr inbounds nuw i8, ptr %opaque, i64 72
  %0 = load ptr, ptr %name, align 8
  tail call void (ptr, ptr, i32, ptr, ptr, ...) @error_setg_internal(ptr noundef %errp, ptr noundef nonnull @.str, i32 noundef 353, ptr noundef nonnull @__func__.vfio_save_prepare, ptr noundef nonnull @.str.15, ptr noundef %0) #16
  br label %return

if.end3:                                          ; preds = %if.end
  %call4 = tail call zeroext i1 @migrate_background_snapshot() #16
  br i1 %call4, label %if.then5, label %return

if.then5:                                         ; preds = %if.end3
  %name6 = getelementptr inbounds nuw i8, ptr %opaque, i64 72
  %1 = load ptr, ptr %name6, align 8
  tail call void (ptr, ptr, i32, ptr, ptr, ...) @error_setg_internal(ptr noundef %errp, ptr noundef nonnull @.str, i32 noundef 361, ptr noundef nonnull @__func__.vfio_save_prepare, ptr noundef nonnull @.str.16, ptr noundef %1) #16
  br label %return

return:                                           ; preds = %if.end3, %entry, %if.then5, %if.then2
  %retval.0 = phi i32 [ -95, %if.then2 ], [ -95, %if.then5 ], [ 0, %entry ], [ 0, %if.end3 ]
  ret i32 %retval.0
}